
Memory Configuration

Name             Origin             Length             Attributes
flash            0x08000000         0x00010000         xr
ram              0x20000000         0x00005000         xrw
*default*        0x00000000         0xffffffff

Linker script and memory map

LOAD build/stm32f103c8_startup.o
LOAD build/blink2.o
                0x08000000                _sflash = 0x8000000
                0x00010000                _lflash = 0x10000
                0x20000000                _sram = 0x20000000
                0x00005000                _lram = 0x5000
                0x20005000                _estack = (_sram + _lram)

.text           0x08000000      0x1dc
 *(.vector_tab)
 .vector_tab    0x08000000       0x40 build/stm32f103c8_startup.o
                0x08000000                vector_table
 *(.text)
 .text          0x08000040       0x8c build/stm32f103c8_startup.o
                0x08000040                NMI_handler
                0x08000040                default_handler
                0x08000040                SVCall_handler
                0x08000040                MemManage_handler
                0x08000040                HardFault_handler
                0x08000040                BusFault_handler
                0x08000040                PendSV_handler
                0x08000040                UsageFault_handler
                0x08000040                Debug_Monitor_handler
                0x08000046                Reset_handler
 .text          0x080000cc      0x10c build/blink2.o
                0x080000cc                systick_init
                0x0800011c                gpioc_clock_enable
                0x08000140                pc13_output_mode_set
                0x08000174                led_toggle
                0x080001a8                SysTick_handler
                0x080001c0                main
 *(.rodata)
 .rodata        0x080001d8        0x4 build/blink2.o
                0x080001dc                . = ALIGN (0x4)
                0x080001dc                _etext = .

.glue_7         0x080001dc        0x0
 .glue_7        0x080001dc        0x0 linker stubs

.glue_7t        0x080001dc        0x0
 .glue_7t       0x080001dc        0x0 linker stubs

.vfp11_veneer   0x080001dc        0x0
 .vfp11_veneer  0x080001dc        0x0 linker stubs

.v4_bx          0x080001dc        0x0
 .v4_bx         0x080001dc        0x0 linker stubs

.iplt           0x080001dc        0x0
 .iplt          0x080001dc        0x0 build/stm32f103c8_startup.o

.rel.dyn        0x080001dc        0x0
 .rel.iplt      0x080001dc        0x0 build/stm32f103c8_startup.o

.data           0x20000000        0x4 load address 0x080001dc
                0x20000000                _sdata = .
 *(.data)
 .data          0x20000000        0x0 build/stm32f103c8_startup.o
 .data          0x20000000        0x1 build/blink2.o
                0x20000000                toggle
                0x20000004                . = ALIGN (0x4)
 *fill*         0x20000001        0x3 
                0x20000004                _edata = .

.igot.plt       0x20000004        0x0 load address 0x080001e0
 .igot.plt      0x20000004        0x0 build/stm32f103c8_startup.o

.bss            0x20000004        0x0 load address 0x080001e0
                0x20000004                _sbss = .
 *(.bss)
 .bss           0x20000004        0x0 build/stm32f103c8_startup.o
 .bss           0x20000004        0x0 build/blink2.o
 *(COMMON)
                0x20000004                . = ALIGN (0x4)
                0x20000004                _ebss = .
OUTPUT(build/main.elf elf32-littlearm)
LOAD linker stubs

.debug_info     0x00000000      0x32d
 .debug_info    0x00000000      0x192 build/stm32f103c8_startup.o
 .debug_info    0x00000192      0x19b build/blink2.o

.debug_abbrev   0x00000000      0x1d0
 .debug_abbrev  0x00000000       0xf2 build/stm32f103c8_startup.o
 .debug_abbrev  0x000000f2       0xde build/blink2.o

.debug_aranges  0x00000000       0x40
 .debug_aranges
                0x00000000       0x20 build/stm32f103c8_startup.o
 .debug_aranges
                0x00000020       0x20 build/blink2.o

.debug_line     0x00000000      0x2ff
 .debug_line    0x00000000      0x198 build/stm32f103c8_startup.o
 .debug_line    0x00000198      0x167 build/blink2.o

.debug_str      0x00000000      0x213
 .debug_str     0x00000000      0x167 build/stm32f103c8_startup.o
                                0x1a4 (size before relaxing)
 .debug_str     0x00000167       0xac build/blink2.o
                                0x1e2 (size before relaxing)

.comment        0x00000000       0x4c
 .comment       0x00000000       0x4c build/stm32f103c8_startup.o
                                 0x4d (size before relaxing)
 .comment       0x0000004c       0x4d build/blink2.o

.ARM.attributes
                0x00000000       0x2d
 .ARM.attributes
                0x00000000       0x2d build/stm32f103c8_startup.o
 .ARM.attributes
                0x0000002d       0x2d build/blink2.o

.debug_frame    0x00000000      0x130
 .debug_frame   0x00000000       0x4c build/stm32f103c8_startup.o
 .debug_frame   0x0000004c       0xe4 build/blink2.o
