
Memory Configuration

Name             Origin             Length             Attributes
flash            0x08000000         0x00010000         xr
ram              0x20000000         0x00005000         xrw
*default*        0x00000000         0xffffffff

Linker script and memory map

LOAD build/stk.o
LOAD build/gpio.o
LOAD build/stm32f103c8_startup.o
LOAD build/rcc.o
LOAD build/blink2.o
                0x08000000                _sflash = 0x8000000
                0x00010000                _lflash = 0x10000
                0x20000000                _sram = 0x20000000
                0x00005000                _lram = 0x5000
                0x20005000                _estack = (_sram + _lram)

.text           0x08000000      0x2a0
 *(.vector_tab)
 .vector_tab    0x08000000       0x40 build/stm32f103c8_startup.o
                0x08000000                vector_table
 *(.text)
 .text          0x08000040       0x34 build/stk.o
                0x08000040                STK_init
 .text          0x08000074       0x9c build/gpio.o
                0x08000074                GPIO_init
 .text          0x08000110       0x8c build/stm32f103c8_startup.o
                0x08000110                NMI_handler
                0x08000110                default_handler
                0x08000110                SVCall_handler
                0x08000110                MemManage_handler
                0x08000110                HardFault_handler
                0x08000110                BusFault_handler
                0x08000110                PendSV_handler
                0x08000110                UsageFault_handler
                0x08000110                Debug_Monitor_handler
                0x08000116                Reset_handler
 .text          0x0800019c       0xa4 build/rcc.o
                0x0800019c                RCC_init_gpiox
 .text          0x08000240       0x60 build/blink2.o
                0x08000240                SysTick_handler
                0x08000258                main
 *(.rodata)
                0x080002a0                . = ALIGN (0x4)
                0x080002a0                _etext = .

.glue_7         0x080002a0        0x0
 .glue_7        0x080002a0        0x0 linker stubs

.glue_7t        0x080002a0        0x0
 .glue_7t       0x080002a0        0x0 linker stubs

.vfp11_veneer   0x080002a0        0x0
 .vfp11_veneer  0x080002a0        0x0 linker stubs

.v4_bx          0x080002a0        0x0
 .v4_bx         0x080002a0        0x0 linker stubs

.iplt           0x080002a0        0x0
 .iplt          0x080002a0        0x0 build/stk.o

.rel.dyn        0x080002a0        0x0
 .rel.iplt      0x080002a0        0x0 build/stk.o

.data           0x20000000        0x4 load address 0x080002a0
                0x20000000                _sdata = .
 *(.data)
 .data          0x20000000        0x0 build/stk.o
 .data          0x20000000        0x0 build/gpio.o
 .data          0x20000000        0x0 build/stm32f103c8_startup.o
 .data          0x20000000        0x4 build/rcc.o
                0x20000000                panget
 .data          0x20000004        0x0 build/blink2.o
                0x20000004                . = ALIGN (0x4)
                0x20000004                _edata = .

.igot.plt       0x20000004        0x0 load address 0x080002a4
 .igot.plt      0x20000004        0x0 build/stk.o

.bss            0x20000004        0x4 load address 0x080002a4
                0x20000004                _sbss = .
 *(.bss)
 .bss           0x20000004        0x0 build/stk.o
 .bss           0x20000004        0x0 build/gpio.o
 .bss           0x20000004        0x0 build/stm32f103c8_startup.o
 .bss           0x20000004        0x0 build/rcc.o
 .bss           0x20000004        0x1 build/blink2.o
 *(COMMON)
                0x20000008                . = ALIGN (0x4)
 *fill*         0x20000005        0x3 
                0x20000008                _ebss = .
OUTPUT(build/main.elf elf32-littlearm)
LOAD linker stubs

.debug_info     0x00000000      0x72e
 .debug_info    0x00000000      0x117 build/stk.o
 .debug_info    0x00000117      0x15c build/gpio.o
 .debug_info    0x00000273      0x192 build/stm32f103c8_startup.o
 .debug_info    0x00000405      0x1dd build/rcc.o
 .debug_info    0x000005e2      0x14c build/blink2.o

.debug_abbrev   0x00000000      0x3c2
 .debug_abbrev  0x00000000       0x95 build/stk.o
 .debug_abbrev  0x00000095       0xb8 build/gpio.o
 .debug_abbrev  0x0000014d       0xf2 build/stm32f103c8_startup.o
 .debug_abbrev  0x0000023f       0xcb build/rcc.o
 .debug_abbrev  0x0000030a       0xb8 build/blink2.o

.debug_aranges  0x00000000       0xa0
 .debug_aranges
                0x00000000       0x20 build/stk.o
 .debug_aranges
                0x00000020       0x20 build/gpio.o
 .debug_aranges
                0x00000040       0x20 build/stm32f103c8_startup.o
 .debug_aranges
                0x00000060       0x20 build/rcc.o
 .debug_aranges
                0x00000080       0x20 build/blink2.o

.debug_line     0x00000000      0x6e0
 .debug_line    0x00000000      0x130 build/stk.o
 .debug_line    0x00000130      0x17c build/gpio.o
 .debug_line    0x000002ac      0x198 build/stm32f103c8_startup.o
 .debug_line    0x00000444      0x150 build/rcc.o
 .debug_line    0x00000594      0x14c build/blink2.o

.debug_str      0x00000000      0x258
 .debug_str     0x00000000      0x127 build/stk.o
                                0x16c (size before relaxing)
 .debug_str     0x00000127       0x32 build/gpio.o
                                0x16b (size before relaxing)
 .debug_str     0x00000159       0x7d build/stm32f103c8_startup.o
                                0x1a4 (size before relaxing)
 .debug_str     0x000001d6       0x59 build/rcc.o
                                0x196 (size before relaxing)
 .debug_str     0x0000022f       0x29 build/blink2.o
                                0x173 (size before relaxing)

.comment        0x00000000       0x4c
 .comment       0x00000000       0x4c build/stk.o
                                 0x4d (size before relaxing)
 .comment       0x0000004c       0x4d build/gpio.o
 .comment       0x0000004c       0x4d build/stm32f103c8_startup.o
 .comment       0x0000004c       0x4d build/rcc.o
 .comment       0x0000004c       0x4d build/blink2.o

.ARM.attributes
                0x00000000       0x2d
 .ARM.attributes
                0x00000000       0x2d build/stk.o
 .ARM.attributes
                0x0000002d       0x2d build/gpio.o
 .ARM.attributes
                0x0000005a       0x2d build/stm32f103c8_startup.o
 .ARM.attributes
                0x00000087       0x2d build/rcc.o
 .ARM.attributes
                0x000000b4       0x2d build/blink2.o

.debug_frame    0x00000000      0x140
 .debug_frame   0x00000000       0x38 build/stk.o
 .debug_frame   0x00000038       0x38 build/gpio.o
 .debug_frame   0x00000070       0x4c build/stm32f103c8_startup.o
 .debug_frame   0x000000bc       0x38 build/rcc.o
 .debug_frame   0x000000f4       0x4c build/blink2.o
