
Memory Configuration

Name             Origin             Length             Attributes
flash            0x08000000         0x00010000         xr
ram              0x20000000         0x00005000         xrw
*default*        0x00000000         0xffffffff

Linker script and memory map

LOAD build/matrix.o
LOAD build/gpio.o
LOAD build/stm32f103c8_startup.o
LOAD build/rcc.o
                0x08000000                _sflash = 0x8000000
                0x00010000                _lflash = 0x10000
                0x20000000                _sram = 0x20000000
                0x00005000                _lram = 0x5000
                0x20005000                _estack = (_sram + _lram)

.text           0x08000000      0x268
 *(.vector_tab)
 .vector_tab    0x08000000       0x40 build/stm32f103c8_startup.o
                0x08000000                vector_table
 *(.text)
 .text          0x08000040       0x5c build/matrix.o
                0x08000040                delay
                0x08000070                main
 .text          0x0800009c       0x9c build/gpio.o
                0x0800009c                GPIO_init
 .text          0x08000138       0x8c build/stm32f103c8_startup.o
                0x08000138                NMI_handler
                0x08000138                default_handler
                0x08000138                SVCall_handler
                0x08000138                SysTick_handler
                0x08000138                MemManage_handler
                0x08000138                HardFault_handler
                0x08000138                Debug_Monitor_handler
                0x08000138                PendSV_handler
                0x08000138                UsageFault_handler
                0x08000138                BusFault_handler
                0x0800013e                Reset_handler
 .text          0x080001c4       0xa4 build/rcc.o
                0x080001c4                RCC_init_gpiox
 *(.rodata)
                0x08000268                . = ALIGN (0x4)
                0x08000268                _etext = .

.glue_7         0x08000268        0x0
 .glue_7        0x08000268        0x0 linker stubs

.glue_7t        0x08000268        0x0
 .glue_7t       0x08000268        0x0 linker stubs

.vfp11_veneer   0x08000268        0x0
 .vfp11_veneer  0x08000268        0x0 linker stubs

.v4_bx          0x08000268        0x0
 .v4_bx         0x08000268        0x0 linker stubs

.iplt           0x08000268        0x0
 .iplt          0x08000268        0x0 build/matrix.o

.rel.dyn        0x08000268        0x0
 .rel.iplt      0x08000268        0x0 build/matrix.o

.data           0x20000000        0x4 load address 0x08000268
                0x20000000                _sdata = .
 *(.data)
 .data          0x20000000        0x0 build/matrix.o
 .data          0x20000000        0x0 build/gpio.o
 .data          0x20000000        0x0 build/stm32f103c8_startup.o
 .data          0x20000000        0x4 build/rcc.o
                0x20000000                panget
                0x20000004                . = ALIGN (0x4)
                0x20000004                _edata = .

.igot.plt       0x20000004        0x0 load address 0x0800026c
 .igot.plt      0x20000004        0x0 build/matrix.o

.bss            0x20000004        0x4 load address 0x0800026c
                0x20000004                _sbss = .
 *(.bss)
 .bss           0x20000004        0x4 build/matrix.o
 .bss           0x20000008        0x0 build/gpio.o
 .bss           0x20000008        0x0 build/stm32f103c8_startup.o
 .bss           0x20000008        0x0 build/rcc.o
 *(COMMON)
                0x20000008                . = ALIGN (0x4)
                0x20000008                _ebss = .
OUTPUT(build/main.elf elf32-littlearm)
LOAD linker stubs

.debug_info     0x00000000      0x612
 .debug_info    0x00000000      0x147 build/matrix.o
 .debug_info    0x00000147      0x15c build/gpio.o
 .debug_info    0x000002a3      0x192 build/stm32f103c8_startup.o
 .debug_info    0x00000435      0x1dd build/rcc.o

.debug_abbrev   0x00000000      0x326
 .debug_abbrev  0x00000000       0xb1 build/matrix.o
 .debug_abbrev  0x000000b1       0xb8 build/gpio.o
 .debug_abbrev  0x00000169       0xf2 build/stm32f103c8_startup.o
 .debug_abbrev  0x0000025b       0xcb build/rcc.o

.debug_aranges  0x00000000       0x80
 .debug_aranges
                0x00000000       0x20 build/matrix.o
 .debug_aranges
                0x00000020       0x20 build/gpio.o
 .debug_aranges
                0x00000040       0x20 build/stm32f103c8_startup.o
 .debug_aranges
                0x00000060       0x20 build/rcc.o

.debug_line     0x00000000      0x5bf
 .debug_line    0x00000000      0x15b build/matrix.o
 .debug_line    0x0000015b      0x17c build/gpio.o
 .debug_line    0x000002d7      0x198 build/stm32f103c8_startup.o
 .debug_line    0x0000046f      0x150 build/rcc.o

.debug_str      0x00000000      0x219
 .debug_str     0x00000000      0x122 build/matrix.o
                                0x167 (size before relaxing)
 .debug_str     0x00000122       0x21 build/gpio.o
                                0x16b (size before relaxing)
 .debug_str     0x00000143       0x7d build/stm32f103c8_startup.o
                                0x1a4 (size before relaxing)
 .debug_str     0x000001c0       0x59 build/rcc.o
                                0x196 (size before relaxing)

.comment        0x00000000       0x4c
 .comment       0x00000000       0x4c build/matrix.o
                                 0x4d (size before relaxing)
 .comment       0x0000004c       0x4d build/gpio.o
 .comment       0x0000004c       0x4d build/stm32f103c8_startup.o
 .comment       0x0000004c       0x4d build/rcc.o

.ARM.attributes
                0x00000000       0x2d
 .ARM.attributes
                0x00000000       0x2d build/matrix.o
 .ARM.attributes
                0x0000002d       0x2d build/gpio.o
 .ARM.attributes
                0x0000005a       0x2d build/stm32f103c8_startup.o
 .ARM.attributes
                0x00000087       0x2d build/rcc.o

.debug_frame    0x00000000      0x108
 .debug_frame   0x00000000       0x4c build/matrix.o
 .debug_frame   0x0000004c       0x38 build/gpio.o
 .debug_frame   0x00000084       0x4c build/stm32f103c8_startup.o
 .debug_frame   0x000000d0       0x38 build/rcc.o
